target datalayout = "e-m:e-p270:32:32-p271:32:32-p272:64:64-i64:64-i128:128-f80:128-n8:16:32:64-S128"
target triple = "x86_64-pc-linux-gnu"

%struct.ResourceHeader = type { i32, i64, i64, i32, i32, i8 }

@_ZL15ZipInflateFully = internal global ptr null, align 8

; Function Attrs: mustprogress uwtable
define hidden noundef zeroext i8 @_ZN15ZipDecompressor10decompressEPvyS0_yPPc(ptr noundef %0, i64 noundef %1, ptr noundef %2, i64 noundef %3, ptr noundef %4) #0 align 2 {
  %6 = alloca ptr, align 8
  %7 = alloca i64, align 8
  %8 = alloca ptr, align 8
  %9 = alloca i64, align 8
  %10 = alloca ptr, align 8
  store ptr %0, ptr %6, align 8
  store i64 %1, ptr %7, align 8
  store ptr %2, ptr %8, align 8
  store i64 %3, ptr %9, align 8
  store ptr %4, ptr %10, align 8
  %11 = load ptr, ptr @_ZL15ZipInflateFully, align 8
  %12 = load ptr, ptr %6, align 8
  %13 = load i64, ptr %7, align 8
  %14 = load ptr, ptr %8, align 8
  %15 = load i64, ptr %9, align 8
  %16 = load ptr, ptr %10, align 8
  %17 = call noundef zeroext i8 %11(ptr noundef %12, i64 noundef %13, ptr noundef %14, i64 noundef %15, ptr noundef %16)
  ret i8 %17
}

; Function Attrs: mustprogress uwtable
define hidden void @_ZN15ZipDecompressor19decompress_resourceEPhS0_P14ResourceHeaderPK12ImageStrings(ptr noundef nonnull align 8 dereferenceable(16) %0, ptr noundef %1, ptr noundef %2, ptr noundef %3, ptr noundef %4) unnamed_addr #0 align 2 {
  %6 = alloca ptr, align 8
  %7 = alloca ptr, align 8
  %8 = alloca ptr, align 8
  %9 = alloca ptr, align 8
  %10 = alloca ptr, align 8
  %11 = alloca ptr, align 8
  %12 = alloca i8, align 1
  store ptr %0, ptr %6, align 8
  store ptr %1, ptr %7, align 8
  store ptr %2, ptr %8, align 8
  store ptr %3, ptr %9, align 8
  store ptr %4, ptr %10, align 8
  store ptr null, ptr %11, align 8
  %13 = load ptr, ptr %7, align 8
  %14 = load ptr, ptr %9, align 8
  %15 = getelementptr inbounds %struct.ResourceHeader, ptr %14, i32 0, i32 1
  %16 = load i64, ptr %15, align 8
  %17 = load ptr, ptr %8, align 8
  %18 = load ptr, ptr %9, align 8
  %19 = getelementptr inbounds %struct.ResourceHeader, ptr %18, i32 0, i32 2
  %20 = load i64, ptr %19, align 8
  %21 = call noundef zeroext i8 @_ZN15ZipDecompressor10decompressEPvyS0_yPPc(ptr noundef %13, i64 noundef %16, ptr noundef %17, i64 noundef %20, ptr noundef %11)
  store i8 %21, ptr %12, align 1
  ret void
}