; Function Attrs: mustprogress uwtable
define hidden void @_ZN15ZipDecompressor19decompress_resourceEPhS0_P14ResourceHeaderPK12ImageStrings(ptr nocapture nonnull readnone align 8 %0, ptr noundef %1, ptr noundef %2, ptr nocapture noundef readonly %3, ptr nocapture readnone %4) unnamed_addr #0 align 2 {
  %6 = alloca ptr, align 8
  store ptr null, ptr %6, align 8
  %7 = getelementptr inbounds i8, ptr %3, i64 8
  %8 = load i64, ptr %7, align 8
  %9 = getelementptr inbounds i8, ptr %3, i64 16
  %10 = load i64, ptr %9, align 8
  %11 = load ptr, ptr @_ZL15ZipInflateFully, align 8
  %12 = call noundef zeroext i8 %11(ptr noundef %1, i64 noundef %8, ptr noundef %2, i64 noundef %10, ptr noundef nonnull %6)
  ret void
}